target datalayout = "e-m:e-p270:32:32-p271:32:32-p272:64:64-i64:64-i128:128-f80:128-n8:16:32:64-S128"
target triple = "x86_64-pc-linux-gnu"

%"class.absl::synchronization_internal::PthreadWaiter" = type { %union.pthread_mutex_t, %union.pthread_cond_t, i32, i32 }
%union.pthread_mutex_t = type { %struct.__pthread_mutex_s }
%struct.__pthread_mutex_s = type { i32, i32, i32, i32, i32, i16, i16, %struct.__pthread_internal_list }
%struct.__pthread_internal_list = type { ptr, ptr }
%union.pthread_cond_t = type { %struct.__pthread_cond_s }
%struct.__pthread_cond_s = type { %union.__atomic_wide_counter, %union.__atomic_wide_counter, [2 x i32], [2 x i32], i32, i32, [2 x i32] }
%union.__atomic_wide_counter = type { i64 }

@.str = private unnamed_addr constant [147 x i8] c"generated/home/dtcxzyw/WorkSpace/Projects/compilers/llvm-opt-benchmark/bench/abseil-cpp/abseil-cpp/absl/synchronization/internal/pthread_waiter.cc\00", align 1
@.str.1 = private unnamed_addr constant [30 x i8] c"pthread_mutex_init failed: %d\00", align 1
@.str.2 = private unnamed_addr constant [29 x i8] c"pthread_cond_init failed: %d\00", align 1

; Function Attrs: mustprogress uwtable
define dso_local void @_ZN4absl24synchronization_internal13PthreadWaiterC2Ev(ptr noundef nonnull align 8 dereferenceable(96) %0) unnamed_addr #0 align 2 {
  %2 = alloca ptr, align 8
  %3 = alloca i32, align 4
  %4 = alloca ptr, align 8
  %5 = alloca i32, align 4
  %6 = alloca ptr, align 8
  store ptr %0, ptr %2, align 8, !tbaa !4
  %7 = load ptr, ptr %2, align 8
  %8 = getelementptr inbounds nuw %"class.absl::synchronization_internal::PthreadWaiter", ptr %7, i32 0, i32 2
  store i32 0, ptr %8, align 8, !tbaa !9
  %9 = getelementptr inbounds nuw %"class.absl::synchronization_internal::PthreadWaiter", ptr %7, i32 0, i32 3
  store i32 0, ptr %9, align 4, !tbaa !12
  call void @llvm.lifetime.start.p0(i64 4, ptr %3) #8
  %10 = getelementptr inbounds nuw %"class.absl::synchronization_internal::PthreadWaiter", ptr %7, i32 0, i32 0
  %11 = call i32 @pthread_mutex_init(ptr noundef %10, ptr noundef null) #8
  store i32 %11, ptr %3, align 4, !tbaa !13
  %12 = load i32, ptr %3, align 4, !tbaa !13
  %13 = icmp ne i32 %12, 0
  br i1 %13, label %14, label %22

14:                                               ; preds = %1
  br label %15

15:                                               ; preds = %14
  call void @llvm.lifetime.start.p0(i64 8, ptr %4) #8
  store ptr getelementptr (i8, ptr @.str, i64 129), ptr %4, align 8, !tbaa !14
  %16 = load i32, ptr %3, align 4, !tbaa !13
  call void (i32, ptr, i32, ptr, ...) @_ZN4absl16raw_log_internal6RawLogENS_11LogSeverityEPKciS3_z(i32 noundef 3, ptr noundef getelementptr (i8, ptr @.str, i64 129), i32 noundef 68, ptr noundef @.str.1, i32 noundef %16)
  br label %17

17:                                               ; preds = %15
  unreachable

18:                                               ; No predecessors!
  br label %19

19:                                               ; preds = %18
  call void @llvm.lifetime.end.p0(i64 8, ptr %4) #8
  br label %20

20:                                               ; preds = %19
  br label %21

21:                                               ; preds = %20
  br label %22

22:                                               ; preds = %21, %1
  call void @llvm.lifetime.start.p0(i64 4, ptr %5) #8
  %23 = getelementptr inbounds nuw %"class.absl::synchronization_internal::PthreadWaiter", ptr %7, i32 0, i32 1
  %24 = call i32 @pthread_cond_init(ptr noundef %23, ptr noundef null) #8
  store i32 %24, ptr %5, align 4, !tbaa !13
  %25 = load i32, ptr %5, align 4, !tbaa !13
  %26 = icmp ne i32 %25, 0
  br i1 %26, label %27, label %35

27:                                               ; preds = %22
  br label %28

28:                                               ; preds = %27
  call void @llvm.lifetime.start.p0(i64 8, ptr %6) #8
  store ptr getelementptr (i8, ptr @.str, i64 129), ptr %6, align 8, !tbaa !14
  %29 = load i32, ptr %5, align 4, !tbaa !13
  call void (i32, ptr, i32, ptr, ...) @_ZN4absl16raw_log_internal6RawLogENS_11LogSeverityEPKciS3_z(i32 noundef 3, ptr noundef getelementptr (i8, ptr @.str, i64 129), i32 noundef 73, ptr noundef @.str.2, i32 noundef %29)
  br label %30

30:                                               ; preds = %28
  unreachable

31:                                               ; No predecessors!
  br label %32

32:                                               ; preds = %31
  call void @llvm.lifetime.end.p0(i64 8, ptr %6) #8
  br label %33

33:                                               ; preds = %32
  br label %34

34:                                               ; preds = %33
  br label %35

35:                                               ; preds = %34, %22
  call void @llvm.lifetime.end.p0(i64 4, ptr %5) #8
  call void @llvm.lifetime.end.p0(i64 4, ptr %3) #8
  ret void
}