; Function Attrs: mustprogress uwtable
define dso_local void @_ZN4absl24synchronization_internal13PthreadWaiterC2Ev(ptr noundef nonnull align 8 dereferenceable(96) initializes((88, 96)) %0) unnamed_addr #0 align 2 {
  %2 = getelementptr inbounds nuw i8, ptr %0, i64 88
  store i32 0, ptr %2, align 8, !tbaa !4
  %3 = getelementptr inbounds nuw i8, ptr %0, i64 92
  store i32 0, ptr %3, align 4, !tbaa !9
  %4 = tail call i32 @pthread_mutex_init(ptr noundef nonnull %0, ptr noundef null) #7
  %.not = icmp eq i32 %4, 0
  br i1 %.not, label %6, label %5

5:                                                ; preds = %1
  tail call void (i32, ptr, i32, ptr, ...) @_ZN4absl16raw_log_internal6RawLogENS_11LogSeverityEPKciS3_z(i32 noundef 3, ptr noundef nonnull getelementptr inbounds nuw (i8, ptr @.str, i64 129), i32 noundef 68, ptr noundef nonnull @.str.1, i32 noundef %4)
  unreachable

6:                                                ; preds = %1
  %7 = getelementptr inbounds nuw i8, ptr %0, i64 40
  %8 = tail call i32 @pthread_cond_init(ptr noundef nonnull %7, ptr noundef null) #7
  %.not5 = icmp eq i32 %8, 0
  br i1 %.not5, label %10, label %9

9:                                                ; preds = %6
  tail call void (i32, ptr, i32, ptr, ...) @_ZN4absl16raw_log_internal6RawLogENS_11LogSeverityEPKciS3_z(i32 noundef 3, ptr noundef nonnull getelementptr inbounds nuw (i8, ptr @.str, i64 129), i32 noundef 73, ptr noundef nonnull @.str.2, i32 noundef %8)
  unreachable

10:                                               ; preds = %6
  ret void
}